target datalayout = "e-m:e-p270:32:32-p271:32:32-p272:64:64-i64:64-i128:128-f80:128-n8:16:32:64-S128"
target triple = "x86_64-pc-linux-gnu"

; Function Attrs: mustprogress nounwind uwtable
define linkonce_odr noundef float @_ZSt3absf(float noundef %0) #1 comdat {
  %2 = alloca float, align 4
  store float %0, ptr %2, align 4
  %3 = load float, ptr %2, align 4
  %4 = call float @llvm.fabs.f32(float %3)
  ret float %4
}

; Function Attrs: mustprogress nounwind uwtable
define linkonce_odr hidden noundef float @_ZN2cv6cv_absIfEET_S1_(float noundef %0) #1 comdat {
  %2 = alloca float, align 4
  store float %0, ptr %2, align 4
  %3 = load float, ptr %2, align 4
  %4 = call noundef float @_ZSt3absf(float noundef %3)
  ret float %4
}

; Function Attrs: mustprogress nounwind uwtable
define linkonce_odr noundef nonnull align 4 dereferenceable(4) ptr @_ZSt3maxIfERKT_S2_S2_(ptr noundef nonnull align 4 dereferenceable(4) %0, ptr noundef nonnull align 4 dereferenceable(4) %1) #1 comdat {
  %3 = alloca ptr, align 8
  %4 = alloca ptr, align 8
  %5 = alloca ptr, align 8
  store ptr %0, ptr %4, align 8
  store ptr %1, ptr %5, align 8
  %6 = load ptr, ptr %4, align 8
  %7 = load float, ptr %6, align 4
  %8 = load ptr, ptr %5, align 8
  %9 = load float, ptr %8, align 4
  %10 = fcmp olt float %7, %9
  br i1 %10, label %11, label %13

11:                                               ; preds = %2
  %12 = load ptr, ptr %5, align 8
  store ptr %12, ptr %3, align 8
  br label %15

13:                                               ; preds = %2
  %14 = load ptr, ptr %4, align 8
  store ptr %14, ptr %3, align 8
  br label %15

15:                                               ; preds = %13, %11
  %16 = load ptr, ptr %3, align 8
  ret ptr %16
}

; Function Attrs: mustprogress nounwind uwtable
define internal noundef float @_ZN2cvL7normInfIffEET0_PKT_i(ptr noundef %0, i32 noundef %1) #1 {
  %3 = alloca ptr, align 8
  %4 = alloca i32, align 4
  %5 = alloca float, align 4
  %6 = alloca i32, align 4
  %7 = alloca float, align 4
  store ptr %0, ptr %3, align 8
  store i32 %1, ptr %4, align 4
  store float 0.000000e+00, ptr %5, align 4
  store i32 0, ptr %6, align 4
  br label %8

8:                                                ; preds = %21, %2
  %9 = load i32, ptr %6, align 4
  %10 = load i32, ptr %4, align 4
  %11 = icmp slt i32 %9, %10
  br i1 %11, label %12, label %24

12:                                               ; preds = %8
  %13 = load ptr, ptr %3, align 8
  %14 = load i32, ptr %6, align 4
  %15 = sext i32 %14 to i64
  %16 = getelementptr inbounds float, ptr %13, i64 %15
  %17 = load float, ptr %16, align 4
  %18 = call noundef float @_ZN2cv6cv_absIfEET_S1_(float noundef %17)
  store float %18, ptr %7, align 4
  %19 = call noundef nonnull align 4 dereferenceable(4) ptr @_ZSt3maxIfERKT_S2_S2_(ptr noundef nonnull align 4 dereferenceable(4) %5, ptr noundef nonnull align 4 dereferenceable(4) %7)
  %20 = load float, ptr %19, align 4
  store float %20, ptr %5, align 4
  br label %21

21:                                               ; preds = %12
  %22 = load i32, ptr %6, align 4
  %23 = add nsw i32 %22, 1
  store i32 %23, ptr %6, align 4
  br label %8, !llvm.loop !30

24:                                               ; preds = %8
  %25 = load float, ptr %5, align 4
  ret float %25
}

; Function Attrs: mustprogress uwtable
define linkonce_odr hidden noundef i32 @_ZN2cv8normInf_IffEEiPKT_PKhPT0_ii(ptr noundef %0, ptr noundef %1, ptr noundef %2, i32 noundef %3, i32 noundef %4) #0 comdat {
  %6 = alloca ptr, align 8
  %7 = alloca ptr, align 8
  %8 = alloca ptr, align 8
  %9 = alloca i32, align 4
  %10 = alloca i32, align 4
  %11 = alloca float, align 4
  %12 = alloca float, align 4
  %13 = alloca i32, align 4
  %14 = alloca i32, align 4
  %15 = alloca float, align 4
  store ptr %0, ptr %6, align 8
  store ptr %1, ptr %7, align 8
  store ptr %2, ptr %8, align 8
  store i32 %3, ptr %9, align 4
  store i32 %4, ptr %10, align 4
  %16 = load ptr, ptr %8, align 8
  %17 = load float, ptr %16, align 4
  store float %17, ptr %11, align 4
  %18 = load ptr, ptr %7, align 8
  %19 = icmp ne ptr %18, null
  br i1 %19, label %28, label %20

20:                                               ; preds = %5
  %21 = load ptr, ptr %6, align 8
  %22 = load i32, ptr %9, align 4
  %23 = load i32, ptr %10, align 4
  %24 = mul nsw i32 %22, %23
  %25 = call noundef float @_ZN2cvL7normInfIffEET0_PKT_i(ptr noundef %21, i32 noundef %24)
  store float %25, ptr %12, align 4
  %26 = call noundef nonnull align 4 dereferenceable(4) ptr @_ZSt3maxIfERKT_S2_S2_(ptr noundef nonnull align 4 dereferenceable(4) %11, ptr noundef nonnull align 4 dereferenceable(4) %12)
  %27 = load float, ptr %26, align 4
  store float %27, ptr %11, align 4
  br label %67

28:                                               ; preds = %5
  store i32 0, ptr %13, align 4
  br label %29

29:                                               ; preds = %59, %28
  %30 = load i32, ptr %13, align 4
  %31 = load i32, ptr %9, align 4
  %32 = icmp slt i32 %30, %31
  br i1 %32, label %33, label %66

33:                                               ; preds = %29
  %34 = load ptr, ptr %7, align 8
  %35 = load i32, ptr %13, align 4
  %36 = sext i32 %35 to i64
  %37 = getelementptr inbounds i8, ptr %34, i64 %36
  %38 = load i8, ptr %37, align 1
  %39 = icmp ne i8 %38, 0
  br i1 %39, label %40, label %58

40:                                               ; preds = %33
  store i32 0, ptr %14, align 4
  br label %41

41:                                               ; preds = %54, %40
  %42 = load i32, ptr %14, align 4
  %43 = load i32, ptr %10, align 4
  %44 = icmp slt i32 %42, %43
  br i1 %44, label %45, label %57

45:                                               ; preds = %41
  %46 = load ptr, ptr %6, align 8
  %47 = load i32, ptr %14, align 4
  %48 = sext i32 %47 to i64
  %49 = getelementptr inbounds float, ptr %46, i64 %48
  %50 = load float, ptr %49, align 4
  %51 = call noundef float @_ZN2cv6cv_absIfEET_S1_(float noundef %50)
  store float %51, ptr %15, align 4
  %52 = call noundef nonnull align 4 dereferenceable(4) ptr @_ZSt3maxIfERKT_S2_S2_(ptr noundef nonnull align 4 dereferenceable(4) %11, ptr noundef nonnull align 4 dereferenceable(4) %15)
  %53 = load float, ptr %52, align 4
  store float %53, ptr %11, align 4
  br label %54

54:                                               ; preds = %45
  %55 = load i32, ptr %14, align 4
  %56 = add nsw i32 %55, 1
  store i32 %56, ptr %14, align 4
  br label %41, !llvm.loop !28

57:                                               ; preds = %41
  br label %58

58:                                               ; preds = %57, %33
  br label %59

59:                                               ; preds = %58
  %60 = load i32, ptr %13, align 4
  %61 = add nsw i32 %60, 1
  store i32 %61, ptr %13, align 4
  %62 = load i32, ptr %10, align 4
  %63 = load ptr, ptr %6, align 8
  %64 = sext i32 %62 to i64
  %65 = getelementptr inbounds float, ptr %63, i64 %64
  store ptr %65, ptr %6, align 8
  br label %29, !llvm.loop !29

66:                                               ; preds = %29
  br label %67

67:                                               ; preds = %66, %20
  %68 = load float, ptr %11, align 4
  %69 = load ptr, ptr %8, align 8
  store float %68, ptr %69, align 4
  ret i32 0
}

; Function Attrs: mustprogress uwtable
define internal noundef i32 @_ZN2cvL11normInf_32fEPKfPKhPfii(ptr noundef %0, ptr noundef %1, ptr noundef %2, i32 noundef %3, i32 noundef %4) #0 {
  %6 = alloca ptr, align 8
  %7 = alloca ptr, align 8
  %8 = alloca ptr, align 8
  %9 = alloca i32, align 4
  %10 = alloca i32, align 4
  store ptr %0, ptr %6, align 8
  store ptr %1, ptr %7, align 8
  store ptr %2, ptr %8, align 8
  store i32 %3, ptr %9, align 4
  store i32 %4, ptr %10, align 4
  %11 = load ptr, ptr %6, align 8
  %12 = load ptr, ptr %7, align 8
  %13 = load ptr, ptr %8, align 8
  %14 = load i32, ptr %9, align 4
  %15 = load i32, ptr %10, align 4
  %16 = call noundef i32 @_ZN2cv8normInf_IffEEiPKT_PKhPT0_ii(ptr noundef %11, ptr noundef %12, ptr noundef %13, i32 noundef %14, i32 noundef %15)
  ret i32 %16
}