; Function Attrs: mustprogress nofree norecurse nosync nounwind memory(argmem: readwrite) uwtable
define internal noundef i32 @_ZN2cvL11normInf_32fEPKfPKhPfii(ptr noundef readonly captures(none) %0, ptr noundef readonly %1, ptr noundef captures(none) %2, i32 noundef %3, i32 noundef %4) #6 {
  %6 = load float, ptr %2, align 4
  %.not.i = icmp eq ptr %1, null
  br i1 %.not.i, label %17, label %.preheader29.i

.preheader29.i:                                   ; preds = %5
  %7 = icmp sgt i32 %3, 0
  br i1 %7, label %.lr.ph36.i, label %_ZN2cv8normInf_IffEEiPKT_PKhPT0_ii.exit

.lr.ph36.i:                                       ; preds = %.preheader29.i
  %8 = icmp sgt i32 %4, 0
  %9 = sext i32 %4 to i64
  br i1 %8, label %.lr.ph36.split.us.preheader.i, label %_ZN2cv8normInf_IffEEiPKT_PKhPT0_ii.exit

.lr.ph36.split.us.preheader.i:                    ; preds = %.lr.ph36.i
  %wide.trip.count43.i = zext nneg i32 %3 to i64
  %wide.trip.count.i = zext nneg i32 %4 to i64
  br label %.lr.ph36.split.us.i

.lr.ph36.split.us.i:                              ; preds = %..loopexit_crit_edge.us.i, %.lr.ph36.split.us.preheader.i
  %indvars.iv40.i = phi i64 [ 0, %.lr.ph36.split.us.preheader.i ], [ %indvars.iv.next41.i, %..loopexit_crit_edge.us.i ]
  %.01834.us.i = phi ptr [ %0, %.lr.ph36.split.us.preheader.i ], [ %16, %..loopexit_crit_edge.us.i ]
  %.133.us.i = phi float [ %6, %.lr.ph36.split.us.preheader.i ], [ %.3.us.i, %..loopexit_crit_edge.us.i ]
  %10 = getelementptr inbounds nuw i8, ptr %1, i64 %indvars.iv40.i
  %11 = load i8, ptr %10, align 1
  %.not20.us.i = icmp eq i8 %11, 0
  br i1 %.not20.us.i, label %..loopexit_crit_edge.us.i, label %.preheader.us.i

.preheader.us.i:                                  ; preds = %.lr.ph36.split.us.i, %.preheader.us.i
  %indvars.iv.i = phi i64 [ %indvars.iv.next.i, %.preheader.us.i ], [ 0, %.lr.ph36.split.us.i ]
  %.231.us.i = phi float [ %.sroa.speculated.us.i, %.preheader.us.i ], [ %.133.us.i, %.lr.ph36.split.us.i ]
  %12 = getelementptr inbounds nuw float, ptr %.01834.us.i, i64 %indvars.iv.i
  %13 = load float, ptr %12, align 4
  %14 = tail call noundef float @llvm.fabs.f32(float %13)
  %15 = fcmp olt float %.231.us.i, %14
  %.sroa.speculated.us.i = select i1 %15, float %14, float %.231.us.i
  %indvars.iv.next.i = add nuw nsw i64 %indvars.iv.i, 1
  %exitcond.not.i = icmp eq i64 %indvars.iv.next.i, %wide.trip.count.i
  br i1 %exitcond.not.i, label %..loopexit_crit_edge.us.i, label %.preheader.us.i, !llvm.loop !29

..loopexit_crit_edge.us.i:                        ; preds = %.preheader.us.i, %.lr.ph36.split.us.i
  %.3.us.i = phi float [ %.133.us.i, %.lr.ph36.split.us.i ], [ %.sroa.speculated.us.i, %.preheader.us.i ]
  %indvars.iv.next41.i = add nuw nsw i64 %indvars.iv40.i, 1
  %16 = getelementptr inbounds nuw float, ptr %.01834.us.i, i64 %9
  %exitcond44.not.i = icmp eq i64 %indvars.iv.next41.i, %wide.trip.count43.i
  br i1 %exitcond44.not.i, label %_ZN2cv8normInf_IffEEiPKT_PKhPT0_ii.exit, label %.lr.ph36.split.us.i, !llvm.loop !30

17:                                               ; preds = %5
  %18 = mul nsw i32 %4, %3
  %19 = icmp sgt i32 %18, 0
  br i1 %19, label %.lr.ph.preheader.i.i, label %_ZN2cvL7normInfIffEET0_PKT_i.exit.i

.lr.ph.preheader.i.i:                             ; preds = %17
  %wide.trip.count.i.i = zext nneg i32 %18 to i64
  br label %.lr.ph.i.i

.lr.ph.i.i:                                       ; preds = %.lr.ph.i.i, %.lr.ph.preheader.i.i
  %indvars.iv.i.i = phi i64 [ 0, %.lr.ph.preheader.i.i ], [ %indvars.iv.next.i.i, %.lr.ph.i.i ]
  %.056.i.i = phi float [ 0.000000e+00, %.lr.ph.preheader.i.i ], [ %.sroa.speculated.i.i, %.lr.ph.i.i ]
  %20 = getelementptr inbounds nuw float, ptr %0, i64 %indvars.iv.i.i
  %21 = load float, ptr %20, align 4
  %22 = tail call noundef float @llvm.fabs.f32(float %21)
  %23 = fcmp olt float %.056.i.i, %22
  %.sroa.speculated.i.i = select i1 %23, float %22, float %.056.i.i
  %indvars.iv.next.i.i = add nuw nsw i64 %indvars.iv.i.i, 1
  %exitcond.not.i.i = icmp eq i64 %indvars.iv.next.i.i, %wide.trip.count.i.i
  br i1 %exitcond.not.i.i, label %_ZN2cvL7normInfIffEET0_PKT_i.exit.i, label %.lr.ph.i.i, !llvm.loop !18

_ZN2cvL7normInfIffEET0_PKT_i.exit.i:              ; preds = %.lr.ph.i.i, %17
  %.05.lcssa.i.i = phi float [ 0.000000e+00, %17 ], [ %.sroa.speculated.i.i, %.lr.ph.i.i ]
  %24 = fcmp olt float %6, %.05.lcssa.i.i
  %.sroa.speculated23.i = select i1 %24, float %.05.lcssa.i.i, float %6
  br label %_ZN2cv8normInf_IffEEiPKT_PKhPT0_ii.exit

_ZN2cv8normInf_IffEEiPKT_PKhPT0_ii.exit:          ; preds = %..loopexit_crit_edge.us.i, %.preheader29.i, %.lr.ph36.i, %_ZN2cvL7normInfIffEET0_PKT_i.exit.i
  %.028.i = phi float [ %.sroa.speculated23.i, %_ZN2cvL7normInfIffEET0_PKT_i.exit.i ], [ %6, %.preheader29.i ], [ %6, %.lr.ph36.i ], [ %.3.us.i, %..loopexit_crit_edge.us.i ]
  store float %.028.i, ptr %2, align 4
  ret i32 0
}